; Function Attrs: mustprogress uwtable
define void @_ZN7rocksdb6DBImpl7GetImplERKNS_11ReadOptionsEPNS_18ColumnFamilyHandleERKNS_5SliceEPNS_13PinnableSliceEPNSt7__cxx1112basic_stringIcSt11char_traitsIcESaIcEEE(ptr noalias sret(%"class.rocksdb::Status") align 8 %agg.result, ptr noundef nonnull align 64 dereferenceable(6660) %this, ptr noundef nonnull align 8 dereferenceable(154) %read_options, ptr noundef %column_family, ptr noundef nonnull align 8 dereferenceable(16) %key, ptr noundef %value, ptr noundef %timestamp) local_unnamed_addr #5 align 2 {
entry:
  %get_impl_options = alloca %"struct.rocksdb::DBImpl::GetImplOptions", align 8
  %get_value.i = getelementptr inbounds i8, ptr %get_impl_options, i64 56
  %0 = getelementptr inbounds i8, ptr %get_impl_options, i64 16
  call void @llvm.memset.p0.i64(ptr noundef nonnull align 8 dereferenceable(56) %0, i8 0, i64 40, i1 false)
  store i8 1, ptr %get_value.i, align 8
  %merge_operands.i = getelementptr inbounds i8, ptr %get_impl_options, i64 64
  call void @llvm.memset.p0.i64(ptr noundef nonnull align 8 dereferenceable(24) %merge_operands.i, i8 0, i64 24, i1 false)
  store ptr %column_family, ptr %get_impl_options, align 8
  %value3 = getelementptr inbounds i8, ptr %get_impl_options, i64 8
  store ptr %value, ptr %value3, align 8
  %timestamp4 = getelementptr inbounds i8, ptr %get_impl_options, i64 24
  store ptr %timestamp, ptr %timestamp4, align 8
  %vtable = load ptr, ptr %this, align 64
  %vfn = getelementptr inbounds i8, ptr %vtable, i64 1216
  %1 = load ptr, ptr %vfn, align 8
  call void %1(ptr sret(%"class.rocksdb::Status") align 8 %agg.result, ptr noundef nonnull align 64 dereferenceable(6660) %this, ptr noundef nonnull align 8 dereferenceable(154) %read_options, ptr noundef nonnull align 8 dereferenceable(16) %key, ptr noundef nonnull align 8 dereferenceable(88) %get_impl_options)
  ret void
}